target datalayout = "e-m:e-p270:32:32-p271:32:32-p272:64:64-i64:64-i128:128-f80:128-n8:16:32:64-S128"
target triple = "x86_64-pc-linux-gnu"

%struct.lxb_html_parser_t = type { ptr, ptr, ptr, ptr, ptr, i32, i32, i64 }

; Function Attrs: nounwind uwtable
define hidden i32 @lxb_html_parser_init(ptr noundef %0) #0 {
  %2 = alloca i32, align 4
  %3 = alloca ptr, align 8
  %4 = alloca i32, align 4
  store ptr %0, ptr %3, align 8
  %5 = load ptr, ptr %3, align 8
  %6 = icmp eq ptr %5, null
  br i1 %6, label %7, label %8

7:                                                ; preds = %1
  store i32 3, ptr %2, align 4
  br label %46

8:                                                ; preds = %1
  %9 = call ptr @lxb_html_tokenizer_create()
  %10 = load ptr, ptr %3, align 8
  %11 = getelementptr inbounds %struct.lxb_html_parser_t, ptr %10, i32 0, i32 0
  store ptr %9, ptr %11, align 8
  %12 = load ptr, ptr %3, align 8
  %13 = getelementptr inbounds %struct.lxb_html_parser_t, ptr %12, i32 0, i32 0
  %14 = load ptr, ptr %13, align 8
  %15 = call i32 @lxb_html_tokenizer_init(ptr noundef %14)
  store i32 %15, ptr %4, align 4
  %16 = load i32, ptr %4, align 4
  %17 = icmp ne i32 %16, 0
  br i1 %17, label %18, label %20

18:                                               ; preds = %8
  %19 = load i32, ptr %4, align 4
  store i32 %19, ptr %2, align 4
  br label %46

20:                                               ; preds = %8
  %21 = call ptr @lxb_html_tree_create()
  %22 = load ptr, ptr %3, align 8
  %23 = getelementptr inbounds %struct.lxb_html_parser_t, ptr %22, i32 0, i32 1
  store ptr %21, ptr %23, align 8
  %24 = load ptr, ptr %3, align 8
  %25 = getelementptr inbounds %struct.lxb_html_parser_t, ptr %24, i32 0, i32 1
  %26 = load ptr, ptr %25, align 8
  %27 = load ptr, ptr %3, align 8
  %28 = getelementptr inbounds %struct.lxb_html_parser_t, ptr %27, i32 0, i32 0
  %29 = load ptr, ptr %28, align 8
  %30 = call i32 @lxb_html_tree_init(ptr noundef %26, ptr noundef %29)
  store i32 %30, ptr %4, align 4
  %31 = load i32, ptr %4, align 4
  %32 = icmp ne i32 %31, 0
  br i1 %32, label %33, label %35

33:                                               ; preds = %20
  %34 = load i32, ptr %4, align 4
  store i32 %34, ptr %2, align 4
  br label %46

35:                                               ; preds = %20
  %36 = load ptr, ptr %3, align 8
  %37 = getelementptr inbounds %struct.lxb_html_parser_t, ptr %36, i32 0, i32 2
  store ptr null, ptr %37, align 8
  %38 = load ptr, ptr %3, align 8
  %39 = getelementptr inbounds %struct.lxb_html_parser_t, ptr %38, i32 0, i32 4
  store ptr null, ptr %39, align 8
  %40 = load ptr, ptr %3, align 8
  %41 = getelementptr inbounds %struct.lxb_html_parser_t, ptr %40, i32 0, i32 3
  store ptr null, ptr %41, align 8
  %42 = load ptr, ptr %3, align 8
  %43 = getelementptr inbounds %struct.lxb_html_parser_t, ptr %42, i32 0, i32 5
  store i32 0, ptr %43, align 8
  %44 = load ptr, ptr %3, align 8
  %45 = getelementptr inbounds %struct.lxb_html_parser_t, ptr %44, i32 0, i32 7
  store i64 1, ptr %45, align 8
  store i32 0, ptr %2, align 4
  br label %46

46:                                               ; preds = %35, %33, %18, %7
  %47 = load i32, ptr %2, align 4
  ret i32 %47
}