; Function Attrs: nounwind uwtable
define hidden i32 @lxb_html_parser_init(ptr noundef %0) local_unnamed_addr #0 {
  %2 = icmp eq ptr %0, null
  br i1 %2, label %14, label %3

3:                                                ; preds = %1
  %4 = tail call ptr @lxb_html_tokenizer_create() #7
  store ptr %4, ptr %0, align 8
  %5 = tail call i32 @lxb_html_tokenizer_init(ptr noundef %4) #7
  %.not = icmp eq i32 %5, 0
  br i1 %.not, label %6, label %14

6:                                                ; preds = %3
  %7 = tail call ptr @lxb_html_tree_create() #7
  %8 = getelementptr inbounds i8, ptr %0, i64 8
  store ptr %7, ptr %8, align 8
  %9 = load ptr, ptr %0, align 8
  %10 = tail call i32 @lxb_html_tree_init(ptr noundef %7, ptr noundef %9) #7
  %.not18 = icmp eq i32 %10, 0
  br i1 %.not18, label %11, label %14

11:                                               ; preds = %6
  %12 = getelementptr inbounds i8, ptr %0, i64 16
  %13 = getelementptr inbounds i8, ptr %0, i64 48
  tail call void @llvm.memset.p0.i64(ptr noundef nonnull align 8 dereferenceable(28) %12, i8 0, i64 28, i1 false)
  store i64 1, ptr %13, align 8
  br label %14

14:                                               ; preds = %6, %3, %1, %11
  %.0 = phi i32 [ 0, %11 ], [ 3, %1 ], [ %5, %3 ], [ %10, %6 ]
  ret i32 %.0
}